; Function Attrs: mustprogress uwtable
define noundef double @_ZNK8QuantLib20CPIVolatilitySurface13totalVarianceERKNS_4DateEdRKNS_6PeriodEb(ptr noundef nonnull align 8 dereferenceable(93) %this, ptr noundef nonnull align 8 dereferenceable(8) %maturityDate, double noundef %strike, ptr noundef nonnull align 4 dereferenceable(8) %obsLag, i1 noundef zeroext %extrapolate) unnamed_addr #6 align 2 {
entry:
  %call = tail call noundef double @_ZNK8QuantLib20CPIVolatilitySurface10volatilityERKNS_4DateEdRKNS_6PeriodEb(ptr noundef nonnull align 8 dereferenceable(93) %this, ptr noundef nonnull align 8 dereferenceable(8) %maturityDate, double noundef %strike, ptr noundef nonnull align 4 dereferenceable(8) %obsLag, i1 noundef zeroext %extrapolate)
  %vtable = load ptr, ptr %this, align 8, !tbaa !22
  %vfn = getelementptr inbounds i8, ptr %vtable, i64 144
  %0 = load ptr, ptr %vfn, align 8
  %call2 = tail call noundef double %0(ptr noundef nonnull align 8 dereferenceable(93) %this, ptr noundef nonnull align 8 dereferenceable(8) %maturityDate, ptr noundef nonnull align 4 dereferenceable(8) %obsLag)
  %mul = fmul double %call, %call
  %mul3 = fmul double %mul, %call2
  ret double %mul3
}